target datalayout = "e-m:e-p270:32:32-p271:32:32-p272:64:64-i64:64-i128:128-f80:128-n8:16:32:64-S128"
target triple = "x86_64-unknown-linux-gnu"

%struct.MachineState = type { %struct.Object, ptr, ptr, ptr, i32, ptr, i8, i8, i8, i8, ptr, i8, i8, i8, ptr, ptr, ptr, ptr, ptr, i64, i64, i64, %struct.BootConfiguration, ptr, ptr, ptr, ptr, ptr, ptr, %struct.CpuTopology, ptr, ptr }
%struct.Object = type { ptr, ptr, ptr, i32, ptr }
%struct.BootConfiguration = type { ptr, ptr, i8, i8, ptr, i8, i64, i8, i64, i8, i8 }
%struct.CpuTopology = type { i32, i32, i32, i32, i32, i32, i32, i32, i32 }

@.str.225 = private unnamed_addr constant [8 x i8] c"machine\00", align 1
@.str.226 = private unnamed_addr constant [98 x i8] c"/home/dtcxzyw/WorkSpace/Projects/compilers/llvm-opt-benchmark/bench/qemu/qemu/include/hw/boards.h\00", align 1
@__func__.MACHINE = private unnamed_addr constant [8 x i8] c"MACHINE\00", align 1

; Function Attrs: nounwind sspstrong uwtable
define internal void @machine_free_boot_config(ptr noundef %ms) #0 {
entry:
  %ms.addr = alloca ptr, align 8
  store ptr %ms, ptr %ms.addr, align 8
  %0 = load ptr, ptr %ms.addr, align 8
  %boot_config = getelementptr inbounds %struct.MachineState, ptr %0, i32 0, i32 22
  %order = getelementptr inbounds %struct.BootConfiguration, ptr %boot_config, i32 0, i32 0
  %1 = load ptr, ptr %order, align 8
  call void @g_free(ptr noundef %1)
  %2 = load ptr, ptr %ms.addr, align 8
  %boot_config1 = getelementptr inbounds %struct.MachineState, ptr %2, i32 0, i32 22
  %once = getelementptr inbounds %struct.BootConfiguration, ptr %boot_config1, i32 0, i32 1
  %3 = load ptr, ptr %once, align 8
  call void @g_free(ptr noundef %3)
  %4 = load ptr, ptr %ms.addr, align 8
  %boot_config2 = getelementptr inbounds %struct.MachineState, ptr %4, i32 0, i32 22
  %splash = getelementptr inbounds %struct.BootConfiguration, ptr %boot_config2, i32 0, i32 4
  %5 = load ptr, ptr %splash, align 8
  call void @g_free(ptr noundef %5)
  ret void
}

; Function Attrs: nounwind sspstrong uwtable
define internal ptr @MACHINE(ptr noundef %obj) #0 {
entry:
  %obj.addr = alloca ptr, align 8
  store ptr %obj, ptr %obj.addr, align 8
  %0 = load ptr, ptr %obj.addr, align 8
  %call = call ptr @object_dynamic_cast_assert(ptr noundef %0, ptr noundef @.str.225, ptr noundef @.str.226, i32 noundef 23, ptr noundef @__func__.MACHINE)
  ret ptr %call
}

; Function Attrs: nounwind sspstrong uwtable
define internal void @machine_finalize(ptr noundef %obj) #0 {
entry:
  %obj.addr = alloca ptr, align 8
  %ms = alloca ptr, align 8
  store ptr %obj, ptr %obj.addr, align 8
  %0 = load ptr, ptr %obj.addr, align 8
  %call = call ptr @MACHINE(ptr noundef %0)
  store ptr %call, ptr %ms, align 8
  %1 = load ptr, ptr %ms, align 8
  call void @machine_free_boot_config(ptr noundef %1)
  %2 = load ptr, ptr %ms, align 8
  %kernel_filename = getelementptr inbounds %struct.MachineState, ptr %2, i32 0, i32 23
  %3 = load ptr, ptr %kernel_filename, align 8
  call void @g_free(ptr noundef %3)
  %4 = load ptr, ptr %ms, align 8
  %initrd_filename = getelementptr inbounds %struct.MachineState, ptr %4, i32 0, i32 25
  %5 = load ptr, ptr %initrd_filename, align 8
  call void @g_free(ptr noundef %5)
  %6 = load ptr, ptr %ms, align 8
  %kernel_cmdline = getelementptr inbounds %struct.MachineState, ptr %6, i32 0, i32 24
  %7 = load ptr, ptr %kernel_cmdline, align 8
  call void @g_free(ptr noundef %7)
  %8 = load ptr, ptr %ms, align 8
  %dtb = getelementptr inbounds %struct.MachineState, ptr %8, i32 0, i32 2
  %9 = load ptr, ptr %dtb, align 8
  call void @g_free(ptr noundef %9)
  %10 = load ptr, ptr %ms, align 8
  %dumpdtb = getelementptr inbounds %struct.MachineState, ptr %10, i32 0, i32 3
  %11 = load ptr, ptr %dumpdtb, align 8
  call void @g_free(ptr noundef %11)
  %12 = load ptr, ptr %ms, align 8
  %dt_compatible = getelementptr inbounds %struct.MachineState, ptr %12, i32 0, i32 5
  %13 = load ptr, ptr %dt_compatible, align 8
  call void @g_free(ptr noundef %13)
  %14 = load ptr, ptr %ms, align 8
  %firmware = getelementptr inbounds %struct.MachineState, ptr %14, i32 0, i32 10
  %15 = load ptr, ptr %firmware, align 8
  call void @g_free(ptr noundef %15)
  %16 = load ptr, ptr %ms, align 8
  %device_memory = getelementptr inbounds %struct.MachineState, ptr %16, i32 0, i32 17
  %17 = load ptr, ptr %device_memory, align 8
  call void @g_free(ptr noundef %17)
  %18 = load ptr, ptr %ms, align 8
  %nvdimms_state = getelementptr inbounds %struct.MachineState, ptr %18, i32 0, i32 30
  %19 = load ptr, ptr %nvdimms_state, align 8
  call void @g_free(ptr noundef %19)
  %20 = load ptr, ptr %ms, align 8
  %numa_state = getelementptr inbounds %struct.MachineState, ptr %20, i32 0, i32 31
  %21 = load ptr, ptr %numa_state, align 8
  call void @g_free(ptr noundef %21)
  %22 = load ptr, ptr %ms, align 8
  %audiodev = getelementptr inbounds %struct.MachineState, ptr %22, i32 0, i32 18
  %23 = load ptr, ptr %audiodev, align 8
  call void @g_free(ptr noundef %23)
  ret void
}