; Function Attrs: nounwind sspstrong uwtable
define internal void @machine_finalize(ptr noundef %obj) #0 {
entry:
  %call.i = tail call ptr @object_dynamic_cast_assert(ptr noundef %obj, ptr noundef nonnull @.str.225, ptr noundef nonnull @.str.226, i32 noundef 23, ptr noundef nonnull @__func__.MACHINE) #16
  %boot_config.i = getelementptr inbounds nuw i8, ptr %call.i, i64 168
  %0 = load ptr, ptr %boot_config.i, align 8
  tail call void @g_free(ptr noundef %0) #16
  %once.i = getelementptr inbounds nuw i8, ptr %call.i, i64 176
  %1 = load ptr, ptr %once.i, align 8
  tail call void @g_free(ptr noundef %1) #16
  %splash.i = getelementptr inbounds nuw i8, ptr %call.i, i64 192
  %2 = load ptr, ptr %splash.i, align 8
  tail call void @g_free(ptr noundef %2) #16
  %kernel_filename = getelementptr inbounds nuw i8, ptr %call.i, i64 240
  %3 = load ptr, ptr %kernel_filename, align 8
  tail call void @g_free(ptr noundef %3) #16
  %initrd_filename = getelementptr inbounds nuw i8, ptr %call.i, i64 256
  %4 = load ptr, ptr %initrd_filename, align 8
  tail call void @g_free(ptr noundef %4) #16
  %kernel_cmdline = getelementptr inbounds nuw i8, ptr %call.i, i64 248
  %5 = load ptr, ptr %kernel_cmdline, align 8
  tail call void @g_free(ptr noundef %5) #16
  %dtb = getelementptr inbounds nuw i8, ptr %call.i, i64 48
  %6 = load ptr, ptr %dtb, align 8
  tail call void @g_free(ptr noundef %6) #16
  %dumpdtb = getelementptr inbounds nuw i8, ptr %call.i, i64 56
  %7 = load ptr, ptr %dumpdtb, align 8
  tail call void @g_free(ptr noundef %7) #16
  %dt_compatible = getelementptr inbounds nuw i8, ptr %call.i, i64 72
  %8 = load ptr, ptr %dt_compatible, align 8
  tail call void @g_free(ptr noundef %8) #16
  %firmware = getelementptr inbounds nuw i8, ptr %call.i, i64 88
  %9 = load ptr, ptr %firmware, align 8
  tail call void @g_free(ptr noundef %9) #16
  %device_memory = getelementptr inbounds nuw i8, ptr %call.i, i64 128
  %10 = load ptr, ptr %device_memory, align 8
  tail call void @g_free(ptr noundef %10) #16
  %nvdimms_state = getelementptr inbounds nuw i8, ptr %call.i, i64 328
  %11 = load ptr, ptr %nvdimms_state, align 8
  tail call void @g_free(ptr noundef %11) #16
  %numa_state = getelementptr inbounds nuw i8, ptr %call.i, i64 336
  %12 = load ptr, ptr %numa_state, align 8
  tail call void @g_free(ptr noundef %12) #16
  %audiodev = getelementptr inbounds nuw i8, ptr %call.i, i64 136
  %13 = load ptr, ptr %audiodev, align 8
  tail call void @g_free(ptr noundef %13) #16
  ret void
}